target datalayout = "e-m:e-p270:32:32-p271:32:32-p272:64:64-i64:64-i128:128-f80:128-n8:16:32:64-S128"
target triple = "x86_64-pc-linux-gnu"

%"class.cv::obsensor::DepthFrameProcessor" = type { %"class.cv::obsensor::IFrameProcessor", %"struct.cv::obsensor::OBExtensionParam", ptr }
%"class.cv::obsensor::IFrameProcessor" = type { ptr }
%"struct.cv::obsensor::OBExtensionParam" = type { float, float, float, float }

@_ZTVN2cv8obsensor15IFrameProcessorE = linkonce_odr hidden unnamed_addr constant { [5 x ptr] } { [5 x ptr] [ptr null, ptr @_ZTIN2cv8obsensor15IFrameProcessorE, ptr @__cxa_pure_virtual, ptr @_ZN2cv8obsensor15IFrameProcessorD2Ev, ptr @_ZN2cv8obsensor15IFrameProcessorD0Ev] }, comdat, align 8

; Function Attrs: mustprogress nounwind uwtable
define linkonce_odr hidden void @_ZN2cv8obsensor15IFrameProcessorD2Ev(ptr noundef nonnull align 8 dereferenceable(8) %0) unnamed_addr #6 comdat align 2 {
  %2 = alloca ptr, align 8
  store ptr %0, ptr %2, align 8, !tbaa !119
  ret void
}

; Function Attrs: inlinehint mustprogress nounwind uwtable
define linkonce_odr hidden void @_ZN2cv8obsensor15IFrameProcessorC2Ev(ptr noundef nonnull align 8 dereferenceable(8) %0) unnamed_addr #9 comdat align 2 {
  %2 = alloca ptr, align 8
  store ptr %0, ptr %2, align 8, !tbaa !119
  %3 = load ptr, ptr %2, align 8
  store ptr getelementptr inbounds inrange(-16, 24) ({ [5 x ptr] }, ptr @_ZTVN2cv8obsensor15IFrameProcessorE, i32 0, i32 0, i32 2), ptr %3, align 8, !tbaa !95
  ret void
}

; Function Attrs: mustprogress uwtable
define hidden void @_ZN2cv8obsensor19DepthFrameProcessorC2ERKNS0_16OBExtensionParamE(ptr noundef nonnull align 8 dereferenceable(32) %0, ptr noundef nonnull align 4 dereferenceable(16) %1) unnamed_addr #7 align 2 personality ptr @__gxx_personality_v0 {
  %3 = alloca ptr, align 8
  %4 = alloca ptr, align 8
  %5 = alloca double, align 8
  %6 = alloca double, align 8
  %7 = alloca ptr, align 8
  %8 = alloca i32, align 4
  %9 = alloca i16, align 2
  store ptr %0, ptr %3, align 8, !tbaa !100
  store ptr %1, ptr %4, align 8, !tbaa !102
  %10 = load ptr, ptr %3, align 8
  call void @_ZN2cv8obsensor15IFrameProcessorC2Ev(ptr noundef nonnull align 8 dereferenceable(8) %10) #3
  store ptr getelementptr inbounds inrange(-16, 24) ({ [5 x ptr] }, ptr @_ZTVN2cv8obsensor19DepthFrameProcessorE, i32 0, i32 0, i32 2), ptr %10, align 8, !tbaa !95
  %11 = getelementptr inbounds nuw %"class.cv::obsensor::DepthFrameProcessor", ptr %10, i32 0, i32 1
  %12 = load ptr, ptr %4, align 8, !tbaa !102
  call void @llvm.memcpy.p0.p0.i64(ptr align 8 %11, ptr align 4 %12, i64 16, i1 false), !tbaa.struct !104
  call void @llvm.lifetime.start.p0(i64 8, ptr %5) #3
  store double 0.000000e+00, ptr %5, align 8, !tbaa !107
  call void @llvm.lifetime.start.p0(i64 8, ptr %6) #3
  store double 0.000000e+00, ptr %6, align 8, !tbaa !107
  %13 = invoke noalias noundef nonnull ptr @_Znam(i64 noundef 8192) #23
          to label %14 unwind label %23

14:                                               ; preds = %2
  %15 = getelementptr inbounds nuw %"class.cv::obsensor::DepthFrameProcessor", ptr %10, i32 0, i32 2
  store ptr %13, ptr %15, align 8, !tbaa !109
  %16 = getelementptr inbounds nuw %"class.cv::obsensor::DepthFrameProcessor", ptr %10, i32 0, i32 2
  %17 = load ptr, ptr %16, align 8, !tbaa !109
  call void @llvm.memset.p0.i64(ptr align 2 %17, i8 0, i64 8192, i1 false)
  call void @llvm.lifetime.start.p0(i64 2, ptr %9) #3
  store i16 0, ptr %9, align 2, !tbaa !114
  br label %18

18:                                               ; preds = %72, %14
  %19 = load i16, ptr %9, align 2, !tbaa !114
  %20 = zext i16 %19 to i32
  %21 = icmp slt i32 %20, 4096
  br i1 %21, label %27, label %22

22:                                               ; preds = %18
  call void @llvm.lifetime.end.p0(i64 2, ptr %9) #3
  br label %75

23:                                               ; preds = %2
  %24 = landingpad { ptr, i32 }
          cleanup
  %25 = extractvalue { ptr, i32 } %24, 0
  store ptr %25, ptr %7, align 8
  %26 = extractvalue { ptr, i32 } %24, 1
  store i32 %26, ptr %8, align 4
  call void @llvm.lifetime.end.p0(i64 8, ptr %6) #3
  call void @llvm.lifetime.end.p0(i64 8, ptr %5) #3
  call void @_ZN2cv8obsensor15IFrameProcessorD2Ev(ptr noundef nonnull align 8 dereferenceable(8) %10) #3
  br label %76

27:                                               ; preds = %18
  %28 = load i16, ptr %9, align 2, !tbaa !114
  %29 = zext i16 %28 to i32
  %30 = icmp eq i32 %29, 0
  br i1 %30, label %31, label %32

31:                                               ; preds = %27
  br label %72

32:                                               ; preds = %27
  %33 = load i16, ptr %9, align 2, !tbaa !114
  %34 = uitofp i16 %33 to double
  %35 = fdiv double %34, 8.000000e+00
  %36 = fsub double 2.003750e+02, %35
  store double %36, ptr %5, align 8, !tbaa !107
  %37 = getelementptr inbounds nuw %"class.cv::obsensor::DepthFrameProcessor", ptr %10, i32 0, i32 1
  %38 = getelementptr inbounds nuw %"struct.cv::obsensor::OBExtensionParam", ptr %37, i32 0, i32 2
  %39 = load float, ptr %38, align 8, !tbaa !115
  %40 = fpext float %39 to double
  %41 = load double, ptr %5, align 8, !tbaa !107
  %42 = getelementptr inbounds nuw %"class.cv::obsensor::DepthFrameProcessor", ptr %10, i32 0, i32 1
  %43 = getelementptr inbounds nuw %"struct.cv::obsensor::OBExtensionParam", ptr %42, i32 0, i32 3
  %44 = load float, ptr %43, align 4, !tbaa !116
  %45 = fpext float %44 to double
  %46 = fmul double %41, %45
  %47 = getelementptr inbounds nuw %"class.cv::obsensor::DepthFrameProcessor", ptr %10, i32 0, i32 1
  %48 = getelementptr inbounds nuw %"struct.cv::obsensor::OBExtensionParam", ptr %47, i32 0, i32 0
  %49 = load float, ptr %48, align 8, !tbaa !117
  %50 = fpext float %49 to double
  %51 = fdiv double %46, %50
  %52 = fadd double 1.000000e+00, %51
  %53 = fdiv double %40, %52
  %54 = fmul double %53, 1.000000e+01
  store double %54, ptr %6, align 8, !tbaa !107
  %55 = load double, ptr %6, align 8, !tbaa !107
  %56 = fcmp oge double %55, 4.000000e+01
  br i1 %56, label %57, label %71

57:                                               ; preds = %32
  %58 = load double, ptr %6, align 8, !tbaa !107
  %59 = fcmp ole double %58, 1.000000e+04
  br i1 %59, label %60, label %71

60:                                               ; preds = %57
  %61 = load double, ptr %6, align 8, !tbaa !107
  %62 = fcmp olt double %61, 6.553600e+04
  br i1 %62, label %63, label %71

63:                                               ; preds = %60
  %64 = load double, ptr %6, align 8, !tbaa !107
  %65 = fptoui double %64 to i16
  %66 = getelementptr inbounds nuw %"class.cv::obsensor::DepthFrameProcessor", ptr %10, i32 0, i32 2
  %67 = load ptr, ptr %66, align 8, !tbaa !109
  %68 = load i16, ptr %9, align 2, !tbaa !114
  %69 = zext i16 %68 to i64
  %70 = getelementptr inbounds nuw i16, ptr %67, i64 %69
  store i16 %65, ptr %70, align 2, !tbaa !114
  br label %71

71:                                               ; preds = %63, %60, %57, %32
  br label %72

72:                                               ; preds = %71, %31
  %73 = load i16, ptr %9, align 2, !tbaa !114
  %74 = add i16 %73, 1
  store i16 %74, ptr %9, align 2, !tbaa !114
  br label %18, !llvm.loop !118

75:                                               ; preds = %22
  call void @llvm.lifetime.end.p0(i64 8, ptr %6) #3
  call void @llvm.lifetime.end.p0(i64 8, ptr %5) #3
  ret void

76:                                               ; preds = %23
  %77 = load ptr, ptr %7, align 8
  %78 = load i32, ptr %8, align 4
  %79 = insertvalue { ptr, i32 } poison, ptr %77, 0
  %80 = insertvalue { ptr, i32 } %79, i32 %78, 1
  resume { ptr, i32 } %80
}