; Function Attrs: mustprogress uwtable
define hidden void @_ZN2cv8obsensor19DepthFrameProcessorC2ERKNS0_16OBExtensionParamE(ptr noundef nonnull align 8 captures(none) dereferenceable(32) initializes((0, 32)) %0, ptr noundef nonnull readonly align 4 captures(none) dereferenceable(16) %1) unnamed_addr #5 align 2 personality ptr @__gxx_personality_v0 {
  store ptr getelementptr inbounds nuw inrange(-16, 24) (i8, ptr @_ZTVN2cv8obsensor19DepthFrameProcessorE, i64 16), ptr %0, align 8, !tbaa !61
  %3 = getelementptr inbounds nuw i8, ptr %0, i64 8
  tail call void @llvm.memcpy.p0.p0.i64(ptr noundef nonnull align 8 dereferenceable(16) %3, ptr noundef nonnull align 4 dereferenceable(16) %1, i64 16, i1 false), !tbaa.struct !87
  %4 = tail call noalias noundef nonnull dereferenceable(8192) ptr @_Znam(i64 noundef 8192) #27
  %5 = getelementptr inbounds nuw i8, ptr %0, i64 24
  store ptr %4, ptr %5, align 8, !tbaa !90
  tail call void @llvm.memset.p0.i64(ptr noundef nonnull align 2 dereferenceable(8192) %4, i8 0, i64 8192, i1 false)
  %6 = getelementptr inbounds nuw i8, ptr %0, i64 16
  %7 = load float, ptr %6, align 8
  %8 = fpext float %7 to double
  %9 = getelementptr inbounds nuw i8, ptr %0, i64 20
  %10 = load float, ptr %9, align 4
  %11 = fpext float %10 to double
  %12 = load float, ptr %3, align 8
  %13 = fpext float %12 to double
  br label %15

14:                                               ; preds = %33
  ret void

15:                                               ; preds = %2, %33
  %indvars.iv = phi i64 [ 0, %2 ], [ %indvars.iv.next, %33 ]
  %16 = icmp eq i64 %indvars.iv, 0
  br i1 %16, label %33, label %17

17:                                               ; preds = %15
  %18 = trunc nuw nsw i64 %indvars.iv to i16
  %19 = uitofp nneg i16 %18 to double
  %20 = fmul double %19, 1.250000e-01
  %21 = fsub double 2.003750e+02, %20
  %22 = fmul double %21, %11
  %23 = fdiv double %22, %13
  %24 = fadd double %23, 1.000000e+00
  %25 = fdiv double %8, %24
  %26 = fmul double %25, 1.000000e+01
  %27 = fcmp oge double %26, 4.000000e+01
  %28 = fcmp ole double %26, 1.000000e+04
  %or.cond = and i1 %27, %28
  %29 = fcmp olt double %26, 6.553600e+04
  %or.cond3 = and i1 %29, %or.cond
  br i1 %or.cond3, label %30, label %33

30:                                               ; preds = %17
  %31 = fptoui double %26 to i16
  %32 = getelementptr inbounds nuw i16, ptr %4, i64 %indvars.iv
  store i16 %31, ptr %32, align 2, !tbaa !95
  br label %33

33:                                               ; preds = %17, %30, %15
  %indvars.iv.next = add nuw nsw i64 %indvars.iv, 1
  %exitcond.not = icmp eq i64 %indvars.iv.next, 4096
  br i1 %exitcond.not, label %14, label %15, !llvm.loop !96
}